target datalayout = "e-m:e-p270:32:32-p271:32:32-p272:64:64-i64:64-i128:128-f80:128-n8:16:32:64-S128"
target triple = "x86_64-pc-linux-gnu"

%"class.LIEF::MachO::RelocationFixup" = type { %"class.LIEF::MachO::Relocation", i32, i64, i32, i32, %union.anon.38 }
%"class.LIEF::MachO::Relocation" = type { %"class.LIEF::Relocation.base", ptr, i8, i32, ptr, ptr }
%"class.LIEF::Relocation.base" = type <{ %"class.LIEF::Object", i64, i8 }>
%"class.LIEF::Object" = type { ptr }
%union.anon.38 = type { ptr }
%"class.LIEF::Relocation" = type <{ %"class.LIEF::Object", i64, i8, [7 x i8] }>

@_ZTVN4LIEF5MachO10RelocationE = external unnamed_addr constant { [22 x ptr] }, align 8
@_ZTVN4LIEF10RelocationE = external unnamed_addr constant { [15 x ptr] }, align 8

; Function Attrs: mustprogress nounwind uwtable
define linkonce_odr hidden void @_ZN4LIEF10RelocationC2Ev(ptr noundef nonnull align 8 dereferenceable(17) %0) unnamed_addr #1 comdat align 2 {
  %2 = alloca ptr, align 8
  store ptr %0, ptr %2, align 8, !tbaa !69
  %3 = load ptr, ptr %2, align 8
  call void @_ZN4LIEF6ObjectC2Ev(ptr noundef nonnull align 8 dereferenceable(8) %3)
  store ptr getelementptr inbounds inrange(-16, 104) ({ [15 x ptr] }, ptr @_ZTVN4LIEF10RelocationE, i32 0, i32 0, i32 2), ptr %3, align 8, !tbaa !17
  %4 = getelementptr inbounds nuw %"class.LIEF::Relocation", ptr %3, i32 0, i32 1
  store i64 0, ptr %4, align 8, !tbaa !68
  %5 = getelementptr inbounds nuw %"class.LIEF::Relocation", ptr %3, i32 0, i32 2
  store i8 0, ptr %5, align 8, !tbaa !71
  ret void
}

; Function Attrs: mustprogress nounwind uwtable
define linkonce_odr hidden void @_ZN4LIEF5MachO10RelocationC2Ev(ptr noundef nonnull align 8 dereferenceable(56) %0) unnamed_addr #1 comdat align 2 {
  %2 = alloca ptr, align 8
  store ptr %0, ptr %2, align 8, !tbaa !35
  %3 = load ptr, ptr %2, align 8
  call void @_ZN4LIEF10RelocationC2Ev(ptr noundef nonnull align 8 dereferenceable(17) %3)
  store ptr getelementptr inbounds inrange(-16, 160) ({ [22 x ptr] }, ptr @_ZTVN4LIEF5MachO10RelocationE, i32 0, i32 0, i32 2), ptr %3, align 8, !tbaa !17
  %4 = getelementptr inbounds nuw %"class.LIEF::MachO::Relocation", ptr %3, i32 0, i32 1
  store ptr null, ptr %4, align 8, !tbaa !37
  %5 = getelementptr inbounds nuw %"class.LIEF::MachO::Relocation", ptr %3, i32 0, i32 2
  store i8 0, ptr %5, align 8, !tbaa !38
  %6 = getelementptr inbounds nuw %"class.LIEF::MachO::Relocation", ptr %3, i32 0, i32 3
  store i32 -1, ptr %6, align 4, !tbaa !39
  %7 = getelementptr inbounds nuw %"class.LIEF::MachO::Relocation", ptr %3, i32 0, i32 4
  store ptr null, ptr %7, align 8, !tbaa !40
  %8 = getelementptr inbounds nuw %"class.LIEF::MachO::Relocation", ptr %3, i32 0, i32 5
  store ptr null, ptr %8, align 8, !tbaa !41
  ret void
}

; Function Attrs: mustprogress nounwind uwtable
define void @_ZN4LIEF5MachO15RelocationFixupC2ENS0_23DYLD_CHAINED_PTR_FORMATEm(ptr noundef nonnull align 8 dereferenceable(88) %0, i32 noundef %1, i64 noundef %2) unnamed_addr #1 align 2 {
  %4 = alloca ptr, align 8
  %5 = alloca i32, align 4
  %6 = alloca i64, align 8
  store ptr %0, ptr %4, align 8, !tbaa !15
  store i32 %1, ptr %5, align 4, !tbaa !31
  store i64 %2, ptr %6, align 8, !tbaa !13
  %7 = load ptr, ptr %4, align 8
  call void @_ZN4LIEF5MachO10RelocationC2Ev(ptr noundef nonnull align 8 dereferenceable(56) %7)
  store ptr getelementptr inbounds inrange(-16, 160) ({ [22 x ptr] }, ptr @_ZTVN4LIEF5MachO15RelocationFixupE, i32 0, i32 0, i32 2), ptr %7, align 8, !tbaa !17
  %8 = getelementptr inbounds nuw %"class.LIEF::MachO::RelocationFixup", ptr %7, i32 0, i32 1
  %9 = load i32, ptr %5, align 4, !tbaa !31
  store i32 %9, ptr %8, align 8, !tbaa !32
  %10 = getelementptr inbounds nuw %"class.LIEF::MachO::RelocationFixup", ptr %7, i32 0, i32 2
  %11 = load i64, ptr %6, align 8, !tbaa !13
  store i64 %11, ptr %10, align 8, !tbaa !33
  %12 = getelementptr inbounds nuw %"class.LIEF::MachO::RelocationFixup", ptr %7, i32 0, i32 3
  store i32 0, ptr %12, align 8, !tbaa !34
  %13 = getelementptr inbounds nuw %"class.LIEF::MachO::RelocationFixup", ptr %7, i32 0, i32 4
  store i32 0, ptr %13, align 4, !tbaa !19
  %14 = getelementptr inbounds nuw %"class.LIEF::MachO::RelocationFixup", ptr %7, i32 0, i32 5
  store ptr null, ptr %14, align 8, !tbaa !10
  ret void
}